target datalayout = "e-m:e-p270:32:32-p271:32:32-p272:64:64-i64:64-i128:128-f80:128-n8:16:32:64-S128"
target triple = "x86_64-pc-linux-gnu"

%struct.slurmctld_resv = type { i16, ptr, i32, ptr, ptr, i32, ptr, ptr, i32, ptr, i32, ptr, i32, i64, i64, ptr, i64, ptr, ptr, i32, i32, ptr, ptr, i32, ptr, ptr, i32, ptr, ptr, ptr, i32, i32, i64, i64, i64, i64, ptr, ptr, ptr, i32, ptr }
%struct.job_record = type { i32, ptr, ptr, ptr, ptr, i16, i32, i32, i32, ptr, i32, ptr, ptr, i16, ptr, double, i64, ptr, ptr, ptr, ptr, ptr, ptr, i32, ptr, i32, i64, i64, i32, i32, ptr, i16, i64, i64, i8, i32, ptr, ptr, ptr, ptr, ptr, ptr, ptr, ptr, i32, ptr, ptr, i32, ptr, i32, ptr, i32, ptr, i32, ptr, ptr, ptr, ptr, ptr, ptr, i32, i16, i64, ptr, ptr, ptr, ptr, %struct.acct_policy_limit_set_t, i16, ptr, ptr, ptr, ptr, ptr, i32, ptr, ptr, ptr, ptr, ptr, i32, i32, ptr, ptr, ptr, i16, ptr, ptr, i8, ptr, ptr, i64, i64, i8, i32, i32, i8, i32, ptr, i32, i64, i32, ptr, ptr, ptr, i8, i16, i64, i32, ptr, ptr, ptr, ptr, ptr, i16, i32, ptr, ptr, ptr, ptr, i32, ptr, i32, i16, i64, ptr, i32, i32, ptr, i64, ptr, ptr, i64, i32, i32, i64, i32, i32, ptr, ptr, ptr, ptr, ptr, ptr, ptr, ptr, ptr, ptr, ptr, ptr, i32, ptr, i16, i16, i16, i16, ptr, i32, i32, i8, i64 }
%struct.acct_policy_limit_set_t = type { i16, i16, ptr }

; Function Attrs: nounwind uwtable
define dso_local i32 @job_test_resv_now(ptr noundef %0) #0 {
  %2 = alloca i32, align 4
  %3 = alloca ptr, align 8
  %4 = alloca ptr, align 8
  %5 = alloca i64, align 8
  %6 = alloca i32, align 4
  %7 = alloca i32, align 4
  store ptr %0, ptr %3, align 8
  call void @llvm.lifetime.start.p0(i64 8, ptr %4) #10
  call void @llvm.lifetime.start.p0(i64 8, ptr %5) #10
  call void @llvm.lifetime.start.p0(i64 4, ptr %6) #10
  %8 = load ptr, ptr %3, align 8
  %9 = getelementptr inbounds nuw %struct.job_record, ptr %8, i32 0, i32 110
  %10 = load ptr, ptr %9, align 8
  %11 = icmp eq ptr %10, null
  br i1 %11, label %12, label %13

12:                                               ; preds = %1
  store i32 0, ptr %2, align 4
  store i32 1, ptr %7, align 4
  br label %68

13:                                               ; preds = %1
  %14 = load ptr, ptr %3, align 8
  %15 = getelementptr inbounds nuw %struct.job_record, ptr %14, i32 0, i32 111
  %16 = load ptr, ptr %15, align 8
  %17 = icmp ne ptr %16, null
  br i1 %17, label %22, label %18

18:                                               ; preds = %13
  %19 = load ptr, ptr %3, align 8
  %20 = call i32 @validate_job_resv(ptr noundef %19)
  store i32 %20, ptr %6, align 4
  %21 = load i32, ptr %6, align 4
  store i32 %21, ptr %2, align 4
  store i32 1, ptr %7, align 4
  br label %68

22:                                               ; preds = %13
  %23 = load ptr, ptr %3, align 8
  %24 = getelementptr inbounds nuw %struct.job_record, ptr %23, i32 0, i32 111
  %25 = load ptr, ptr %24, align 8
  store ptr %25, ptr %4, align 8
  %26 = load ptr, ptr %3, align 8
  %27 = load ptr, ptr %4, align 8
  %28 = call i32 @_valid_job_access_resv(ptr noundef %26, ptr noundef %27, i1 noundef zeroext true)
  store i32 %28, ptr %6, align 4
  %29 = load i32, ptr %6, align 4
  %30 = icmp ne i32 %29, 0
  br i1 %30, label %31, label %33

31:                                               ; preds = %22
  %32 = load i32, ptr %6, align 4
  store i32 %32, ptr %2, align 4
  store i32 1, ptr %7, align 4
  br label %68

33:                                               ; preds = %22
  %34 = load ptr, ptr %4, align 8
  %35 = getelementptr inbounds nuw %struct.slurmctld_resv, ptr %34, i32 0, i32 16
  %36 = load i64, ptr %35, align 8
  %37 = and i64 %36, 33554432
  %38 = icmp ne i64 %37, 0
  br i1 %38, label %39, label %40

39:                                               ; preds = %33
  store i32 0, ptr %2, align 4
  store i32 1, ptr %7, align 4
  br label %68

40:                                               ; preds = %33
  %41 = call i64 @time(ptr noundef null) #10
  store i64 %41, ptr %5, align 8
  %42 = load i64, ptr %5, align 8
  %43 = load ptr, ptr %4, align 8
  %44 = getelementptr inbounds nuw %struct.slurmctld_resv, ptr %43, i32 0, i32 32
  %45 = load i64, ptr %44, align 8
  %46 = icmp slt i64 %42, %45
  br i1 %46, label %47, label %48

47:                                               ; preds = %40
  store i32 2054, ptr %2, align 4
  store i32 1, ptr %7, align 4
  br label %68

48:                                               ; preds = %40
  %49 = load i64, ptr %5, align 8
  %50 = load ptr, ptr %4, align 8
  %51 = getelementptr inbounds nuw %struct.slurmctld_resv, ptr %50, i32 0, i32 13
  %52 = load i64, ptr %51, align 8
  %53 = icmp sgt i64 %49, %52
  br i1 %53, label %54, label %55

54:                                               ; preds = %48
  store i32 2053, ptr %2, align 4
  store i32 1, ptr %7, align 4
  br label %68

55:                                               ; preds = %48
  %56 = load ptr, ptr %4, align 8
  %57 = getelementptr inbounds nuw %struct.slurmctld_resv, ptr %56, i32 0, i32 26
  %58 = load i32, ptr %57, align 8
  %59 = icmp eq i32 %58, 0
  br i1 %59, label %60, label %67

60:                                               ; preds = %55
  %61 = load ptr, ptr %4, align 8
  %62 = getelementptr inbounds nuw %struct.slurmctld_resv, ptr %61, i32 0, i32 16
  %63 = load i64, ptr %62, align 8
  %64 = and i64 %63, 256
  %65 = icmp ne i64 %64, 0
  br i1 %65, label %67, label %66

66:                                               ; preds = %60
  store i32 2054, ptr %2, align 4
  store i32 1, ptr %7, align 4
  br label %68

67:                                               ; preds = %60, %55
  store i32 0, ptr %2, align 4
  store i32 1, ptr %7, align 4
  br label %68

68:                                               ; preds = %67, %66, %54, %47, %39, %31, %18, %12
  call void @llvm.lifetime.end.p0(i64 4, ptr %6) #10
  call void @llvm.lifetime.end.p0(i64 8, ptr %5) #10
  call void @llvm.lifetime.end.p0(i64 8, ptr %4) #10
  %69 = load i32, ptr %2, align 4
  ret i32 %69
}