; Function Attrs: nounwind uwtable
define dso_local range(i32 0, 2055) i32 @job_test_resv_now(ptr noundef %0) local_unnamed_addr #0 {
  %2 = getelementptr inbounds nuw i8, ptr %0, i64 816
  %3 = load ptr, ptr %2, align 8
  %4 = icmp eq ptr %3, null
  br i1 %4, label %33, label %5

5:                                                ; preds = %1
  %6 = getelementptr inbounds nuw i8, ptr %0, i64 824
  %7 = load ptr, ptr %6, align 8
  %.not = icmp eq ptr %7, null
  br i1 %.not, label %8, label %10

8:                                                ; preds = %5
  %9 = tail call i32 @validate_job_resv(ptr noundef nonnull %0)
  br label %33

10:                                               ; preds = %5
  %11 = tail call fastcc i32 @_valid_job_access_resv(ptr noundef nonnull %0, ptr noundef nonnull %7, i1 noundef zeroext true)
  %.not19 = icmp eq i32 %11, 0
  br i1 %.not19, label %12, label %33

12:                                               ; preds = %10
  %13 = getelementptr inbounds nuw i8, ptr %7, i64 128
  %14 = load i64, ptr %13, align 8
  %15 = and i64 %14, 33554432
  %.not20 = icmp eq i64 %15, 0
  br i1 %.not20, label %16, label %33

16:                                               ; preds = %12
  %17 = tail call i64 @time(ptr noundef null) #19
  %18 = getelementptr inbounds nuw i8, ptr %7, i64 240
  %19 = load i64, ptr %18, align 8
  %20 = icmp slt i64 %17, %19
  br i1 %20, label %33, label %21

21:                                               ; preds = %16
  %22 = getelementptr inbounds nuw i8, ptr %7, i64 104
  %23 = load i64, ptr %22, align 8
  %24 = icmp sgt i64 %17, %23
  br i1 %24, label %33, label %25

25:                                               ; preds = %21
  %26 = getelementptr inbounds nuw i8, ptr %7, i64 200
  %27 = load i32, ptr %26, align 8
  %28 = icmp eq i32 %27, 0
  br i1 %28, label %29, label %32

29:                                               ; preds = %25
  %30 = load i64, ptr %13, align 8
  %31 = and i64 %30, 256
  %.not21 = icmp eq i64 %31, 0
  br i1 %.not21, label %33, label %32

32:                                               ; preds = %29, %25
  br label %33

33:                                               ; preds = %29, %21, %16, %12, %10, %1, %32, %8
  %.0 = phi i32 [ 0, %32 ], [ %9, %8 ], [ 0, %1 ], [ %11, %10 ], [ 0, %12 ], [ 2054, %16 ], [ 2053, %21 ], [ 2054, %29 ]
  ret i32 %.0
}